; Function Attrs: nounwind uwtable
define ptr @l_Lake_Package_mkTargetCommands(ptr noundef readonly captures(none) %0, ptr noundef %1, ptr noundef %2, ptr noundef %3) local_unnamed_addr #0 {
lean_dec.exit:
  %4 = getelementptr inbounds nuw i8, ptr %0, i64 88
  %5 = load ptr, ptr %4, align 8, !tbaa !12
  %6 = getelementptr i8, ptr %5, i64 8
  %.val = load i64, ptr %6, align 8, !tbaa !4
  %7 = shl i64 %.val, 1
  %8 = or disjoint i64 %7, 1
  %9 = inttoptr i64 %8 to ptr
  %10 = tail call ptr @l_Array_filterMapM___at_Lake_Package_mkTargetCommands___spec__1(ptr poison, ptr noundef %1, ptr noundef %2, ptr noundef %3, ptr noundef %5, ptr noundef nonnull inttoptr (i64 1 to ptr), ptr noundef nonnull %9)
  ret ptr %10
}